target datalayout = "e-m:e-p270:32:32-p271:32:32-p272:64:64-i64:64-i128:128-f80:128-n8:16:32:64-S128"
target triple = "x86_64-pc-linux-gnu"

%struct._GdkEventButton = type { i32, ptr, i8, i32, double, double, ptr, i32, i32, ptr, double, double }

; Function Attrs: nounwind uwtable
define internal i32 @reset_widget_idm187(ptr noundef %0, ptr noundef %1, ptr noundef %2) #0 {
  %4 = alloca i32, align 4
  %5 = alloca ptr, align 8
  %6 = alloca ptr, align 8
  %7 = alloca ptr, align 8
  store ptr %0, ptr %5, align 8, !tbaa !6
  store ptr %1, ptr %6, align 8, !tbaa !64
  store ptr %2, ptr %7, align 8, !tbaa !6
  %8 = load ptr, ptr %6, align 8, !tbaa !64
  %9 = getelementptr inbounds nuw %struct._GdkEventButton, ptr %8, i32 0, i32 0
  %10 = load i32, ptr %9, align 8, !tbaa !66
  %11 = icmp eq i32 %10, 5
  br i1 %11, label %12, label %14

12:                                               ; preds = %3
  %13 = load ptr, ptr %7, align 8, !tbaa !6
  call void @dt_bauhaus_widget_reset(ptr noundef %13)
  store i32 1, ptr %4, align 4
  br label %15

14:                                               ; preds = %3
  store i32 0, ptr %4, align 4
  br label %15

15:                                               ; preds = %14, %12
  %16 = load i32, ptr %4, align 4
  ret i32 %16
}